; Function Attrs: mustprogress uwtable
define internal fastcc noundef signext range(i8 0, 2) i8 @_ZL13haveAliasDataP10UErrorCode(ptr noundef %0) unnamed_addr #3 personality ptr @__gxx_personality_v0 {
  %2 = load i32, ptr %0, align 4, !tbaa !13
  %3 = icmp slt i32 %2, 1
  br i1 %3, label %4, label %_ZN6icu_7713umtx_initOnceERNS_9UInitOnceEPFvR10UErrorCodeES3_.exit

4:                                                ; preds = %1
  %5 = load atomic i32, ptr @_ZL18gAliasDataInitOnce acquire, align 4
  %.not11.i = icmp eq i32 %5, 2
  br i1 %.not11.i, label %77, label %6

6:                                                ; preds = %4
  %7 = tail call noundef signext i8 @_ZN6icu_7720umtx_initImplPreInitERNS_9UInitOnceE(ptr noundef nonnull align 4 dereferenceable(8) @_ZL18gAliasDataInitOnce)
  %.not12.i = icmp eq i8 %7, 0
  br i1 %.not12.i, label %77, label %8

8:                                                ; preds = %6
  tail call void @ucln_common_registerCleanup_77(i32 noundef 22, ptr noundef nonnull @_ZL15ucnv_io_cleanupv)
  %9 = tail call ptr @udata_openChoice_77(ptr noundef null, ptr noundef nonnull @_ZL9DATA_TYPE, ptr noundef nonnull @_ZL9DATA_NAME, ptr noundef nonnull @_ZL12isAcceptablePvPKcS1_PK9UDataInfo, ptr noundef null, ptr noundef nonnull align 4 dereferenceable(4) %0)
  %10 = load i32, ptr %0, align 4, !tbaa !13
  %11 = icmp slt i32 %10, 1
  br i1 %11, label %12, label %_ZL13initAliasDataR10UErrorCode.exit

12:                                               ; preds = %8
  %13 = tail call ptr @udata_getMemory_77(ptr noundef %9)
  %14 = load i32, ptr %13, align 4, !tbaa !24
  %15 = icmp ult i32 %14, 8
  br i1 %15, label %16, label %17

16:                                               ; preds = %12
  store i32 3, ptr %0, align 4, !tbaa !13
  tail call void @udata_close_77(ptr noundef %9)
  br label %_ZL13initAliasDataR10UErrorCode.exit

17:                                               ; preds = %12
  store ptr %9, ptr @_ZL10gAliasData, align 8, !tbaa !25
  %18 = getelementptr inbounds nuw i8, ptr %13, i64 4
  %19 = load i32, ptr %18, align 4, !tbaa !24
  store i32 %19, ptr getelementptr inbounds nuw (i8, ptr @_ZL10gMainTable, i64 72), align 8, !tbaa !15
  %20 = getelementptr inbounds nuw i8, ptr %13, i64 8
  %21 = load i32, ptr %20, align 4, !tbaa !24
  store i32 %21, ptr getelementptr inbounds nuw (i8, ptr @_ZL10gMainTable, i64 76), align 4, !tbaa !27
  %22 = getelementptr inbounds nuw i8, ptr %13, i64 12
  %23 = load i32, ptr %22, align 4, !tbaa !24
  store i32 %23, ptr getelementptr inbounds nuw (i8, ptr @_ZL10gMainTable, i64 80), align 8, !tbaa !28
  %24 = getelementptr inbounds nuw i8, ptr %13, i64 16
  %25 = load i32, ptr %24, align 4, !tbaa !24
  store i32 %25, ptr getelementptr inbounds nuw (i8, ptr @_ZL10gMainTable, i64 84), align 4, !tbaa !29
  %26 = getelementptr inbounds nuw i8, ptr %13, i64 20
  %27 = load i32, ptr %26, align 4, !tbaa !24
  store i32 %27, ptr getelementptr inbounds nuw (i8, ptr @_ZL10gMainTable, i64 88), align 8, !tbaa !30
  %28 = getelementptr inbounds nuw i8, ptr %13, i64 24
  %29 = load i32, ptr %28, align 4, !tbaa !24
  store i32 %29, ptr getelementptr inbounds nuw (i8, ptr @_ZL10gMainTable, i64 92), align 4, !tbaa !31
  %30 = getelementptr inbounds nuw i8, ptr %13, i64 28
  %31 = load i32, ptr %30, align 4, !tbaa !24
  store i32 %31, ptr getelementptr inbounds nuw (i8, ptr @_ZL10gMainTable, i64 96), align 8, !tbaa !32
  %32 = getelementptr inbounds nuw i8, ptr %13, i64 32
  %33 = load i32, ptr %32, align 4, !tbaa !24
  store i32 %33, ptr getelementptr inbounds nuw (i8, ptr @_ZL10gMainTable, i64 100), align 4, !tbaa !33
  %.not47.i = icmp eq i32 %14, 8
  br i1 %.not47.i, label %37, label %34

34:                                               ; preds = %17
  %35 = getelementptr inbounds nuw i8, ptr %13, i64 36
  %36 = load i32, ptr %35, align 4, !tbaa !24
  store i32 %36, ptr getelementptr inbounds nuw (i8, ptr @_ZL10gMainTable, i64 104), align 8, !tbaa !34
  br label %37

37:                                               ; preds = %34, %17
  %38 = shl i32 %14, 1
  %39 = add i32 %38, 2
  %40 = zext i32 %39 to i64
  %41 = getelementptr inbounds nuw i16, ptr %13, i64 %40
  store ptr %41, ptr @_ZL10gMainTable, align 8, !tbaa !21
  %42 = add i32 %19, %39
  %43 = zext i32 %42 to i64
  %44 = getelementptr inbounds nuw i16, ptr %13, i64 %43
  store ptr %44, ptr getelementptr inbounds nuw (i8, ptr @_ZL10gMainTable, i64 8), align 8, !tbaa !35
  %45 = add i32 %21, %42
  %46 = zext i32 %45 to i64
  %47 = getelementptr inbounds nuw i16, ptr %13, i64 %46
  store ptr %47, ptr getelementptr inbounds nuw (i8, ptr @_ZL10gMainTable, i64 16), align 8, !tbaa !36
  %48 = add i32 %23, %45
  %49 = zext i32 %48 to i64
  %50 = getelementptr inbounds nuw i16, ptr %13, i64 %49
  store ptr %50, ptr getelementptr inbounds nuw (i8, ptr @_ZL10gMainTable, i64 24), align 8, !tbaa !37
  %51 = add i32 %25, %48
  %52 = zext i32 %51 to i64
  %53 = getelementptr inbounds nuw i16, ptr %13, i64 %52
  store ptr %53, ptr getelementptr inbounds nuw (i8, ptr @_ZL10gMainTable, i64 32), align 8, !tbaa !38
  %54 = add i32 %27, %51
  %55 = zext i32 %54 to i64
  %56 = getelementptr inbounds nuw i16, ptr %13, i64 %55
  store ptr %56, ptr getelementptr inbounds nuw (i8, ptr @_ZL10gMainTable, i64 40), align 8, !tbaa !39
  %57 = add i32 %29, %54
  %.not48.i = icmp eq i32 %31, 0
  br i1 %.not48.i, label %.thread.i, label %58

58:                                               ; preds = %37
  %59 = zext i32 %57 to i64
  %60 = getelementptr inbounds nuw i16, ptr %13, i64 %59
  %61 = load i16, ptr %60, align 2, !tbaa !40
  %.fr.i = freeze i16 %61
  %62 = icmp ult i16 %.fr.i, 2
  br i1 %62, label %66, label %.thread.i

.thread.i:                                        ; preds = %58, %37
  store ptr @_ZL19defaultTableOptions, ptr getelementptr inbounds nuw (i8, ptr @_ZL10gMainTable, i64 48), align 8, !tbaa !42
  %63 = add i32 %31, %57
  %64 = zext i32 %63 to i64
  %65 = getelementptr inbounds nuw i16, ptr %13, i64 %64
  store ptr %65, ptr getelementptr inbounds nuw (i8, ptr @_ZL10gMainTable, i64 56), align 8, !tbaa !20
  br label %74

66:                                               ; preds = %58
  store ptr %60, ptr getelementptr inbounds nuw (i8, ptr @_ZL10gMainTable, i64 48), align 8, !tbaa !42
  %67 = add i32 %31, %57
  %68 = zext i32 %67 to i64
  %69 = getelementptr inbounds nuw i16, ptr %13, i64 %68
  store ptr %69, ptr getelementptr inbounds nuw (i8, ptr @_ZL10gMainTable, i64 56), align 8, !tbaa !20
  %70 = add i32 %33, %67
  %71 = icmp eq i16 %.fr.i, 0
  %72 = zext i32 %70 to i64
  %73 = getelementptr inbounds nuw i16, ptr %13, i64 %72
  %spec.select.i = select i1 %71, ptr %69, ptr %73
  br label %74

74:                                               ; preds = %66, %.thread.i
  %75 = phi ptr [ %65, %.thread.i ], [ %spec.select.i, %66 ]
  store ptr %75, ptr getelementptr inbounds nuw (i8, ptr @_ZL10gMainTable, i64 64), align 8, !tbaa !43
  br label %_ZL13initAliasDataR10UErrorCode.exit

_ZL13initAliasDataR10UErrorCode.exit:             ; preds = %8, %16, %74
  %76 = load i32, ptr %0, align 4, !tbaa !13
  store i32 %76, ptr getelementptr inbounds nuw (i8, ptr @_ZL18gAliasDataInitOnce, i64 4), align 4, !tbaa !44
  tail call void @_ZN6icu_7721umtx_initImplPostInitERNS_9UInitOnceE(ptr noundef nonnull align 4 dereferenceable(8) @_ZL18gAliasDataInitOnce)
  br label %_ZN6icu_7713umtx_initOnceERNS_9UInitOnceEPFvR10UErrorCodeES3_.exit

77:                                               ; preds = %6, %4
  %78 = load i32, ptr getelementptr inbounds nuw (i8, ptr @_ZL18gAliasDataInitOnce, i64 4), align 4, !tbaa !44
  %79 = icmp slt i32 %78, 1
  br i1 %79, label %_ZN6icu_7713umtx_initOnceERNS_9UInitOnceEPFvR10UErrorCodeES3_.exit, label %80

80:                                               ; preds = %77
  store i32 %78, ptr %0, align 4, !tbaa !13
  br label %_ZN6icu_7713umtx_initOnceERNS_9UInitOnceEPFvR10UErrorCodeES3_.exit

_ZN6icu_7713umtx_initOnceERNS_9UInitOnceEPFvR10UErrorCodeES3_.exit: ; preds = %1, %_ZL13initAliasDataR10UErrorCode.exit, %77, %80
  %81 = load i32, ptr %0, align 4, !tbaa !13
  %82 = icmp slt i32 %81, 1
  %83 = zext i1 %82 to i8
  ret i8 %83
}